; Function Attrs: mustprogress uwtable
define void @_ZN11SearchFrameC2EP7QWidget(ptr noundef nonnull align 8 dereferenceable(104) %0, ptr noundef %1) unnamed_addr #0 align 2 personality ptr @__gxx_personality_v0 {
  tail call void @_ZN14AccordionFrameC2EP7QWidget(ptr noundef nonnull align 8 dereferenceable(56) %0, ptr noundef %1)
  store ptr getelementptr inbounds ({ [55 x ptr], [10 x ptr] }, ptr @_ZTV11SearchFrame, i64 0, i32 0, i64 2), ptr %0, align 8
  %3 = getelementptr inbounds i8, ptr %0, i64 16
  store ptr getelementptr inbounds ({ [55 x ptr], [10 x ptr] }, ptr @_ZTV11SearchFrame, i64 0, i32 1, i64 2), ptr %3, align 8
  %4 = invoke noalias noundef nonnull dereferenceable(144) ptr @_Znwm(i64 noundef 144) #12
          to label %5 unwind label %12

5:                                                ; preds = %2
  %6 = getelementptr inbounds i8, ptr %0, i64 56
  store ptr %4, ptr %6, align 8
  %7 = getelementptr inbounds i8, ptr %0, i64 64
  %8 = getelementptr inbounds i8, ptr %0, i64 80
  tail call void @llvm.memset.p0.i64(ptr noundef nonnull align 8 dereferenceable(40) %7, i8 0, i64 40, i1 false)
  invoke void @_ZN14Ui_SearchFrame7setupUiEP14AccordionFrame(ptr noundef nonnull align 8 dereferenceable(144) %4, ptr noundef nonnull %0)
          to label %9 unwind label %14

9:                                                ; preds = %5
  invoke void @_ZN11SearchFrame25applyRecentSearchSettingsEv(ptr noundef nonnull align 8 dereferenceable(104) %0)
          to label %10 unwind label %14

10:                                               ; preds = %9
  invoke void @_ZN11SearchFrame13updateWidgetsEv(ptr noundef nonnull align 8 dereferenceable(104) %0)
          to label %11 unwind label %14

11:                                               ; preds = %10
  ret void

12:                                               ; preds = %2
  %13 = landingpad { ptr, i32 }
          cleanup
  br label %16

14:                                               ; preds = %10, %9, %5
  %15 = landingpad { ptr, i32 }
          cleanup
  tail call void @_ZN7QStringD2Ev(ptr noundef nonnull align 8 dereferenceable(24) %8) #13
  br label %16

16:                                               ; preds = %14, %12
  %.pn = phi { ptr, i32 } [ %15, %14 ], [ %13, %12 ]
  tail call void @_ZN6QFrameD2Ev(ptr noundef nonnull align 8 dereferenceable(40) %0) #13
  resume { ptr, i32 } %.pn
}